target datalayout = "e-m:e-p270:32:32-p271:32:32-p272:64:64-i64:64-i128:128-f80:128-n8:16:32:64-S128"
target triple = "x86_64-pc-linux-gnu"

%struct.mbedtls_mpi = type { ptr, i16, i16 }
%struct.mbedtls_rsa_context = type { i32, i64, %struct.mbedtls_mpi, %struct.mbedtls_mpi, %struct.mbedtls_mpi, %struct.mbedtls_mpi, %struct.mbedtls_mpi, %struct.mbedtls_mpi, %struct.mbedtls_mpi, %struct.mbedtls_mpi, %struct.mbedtls_mpi, %struct.mbedtls_mpi, %struct.mbedtls_mpi, %struct.mbedtls_mpi, %struct.mbedtls_mpi, i32, i32 }

@.str = private unnamed_addr constant [117 x i8] c"generated/home/dtcxzyw/WorkSpace/Projects/compilers/llvm-opt-benchmark/bench/lief/bench_build/mbed_src/library/rsa.c\00", align 1

; Function Attrs: inlinehint nounwind uwtable
define internal i32 @mbedtls_error_add(i32 noundef %0, i32 noundef %1, ptr noundef %2, i32 noundef %3) #3 {
  %5 = alloca i32, align 4
  %6 = alloca i32, align 4
  %7 = alloca ptr, align 8
  %8 = alloca i32, align 4
  store i32 %0, ptr %5, align 4, !tbaa !12
  store i32 %1, ptr %6, align 4, !tbaa !12
  store ptr %2, ptr %7, align 8, !tbaa !8
  store i32 %3, ptr %8, align 4, !tbaa !12
  %9 = load i32, ptr %5, align 4, !tbaa !12
  %10 = load i32, ptr %6, align 4, !tbaa !12
  %11 = add nsw i32 %9, %10
  ret i32 %11
}

; Function Attrs: nounwind uwtable
define hidden i32 @mbedtls_rsa_import_raw(ptr noundef %0, ptr noundef %1, i64 noundef %2, ptr noundef %3, i64 noundef %4, ptr noundef %5, i64 noundef %6, ptr noundef %7, i64 noundef %8, ptr noundef %9, i64 noundef %10) #0 {
  %12 = alloca i32, align 4
  %13 = alloca ptr, align 8
  %14 = alloca ptr, align 8
  %15 = alloca i64, align 8
  %16 = alloca ptr, align 8
  %17 = alloca i64, align 8
  %18 = alloca ptr, align 8
  %19 = alloca i64, align 8
  %20 = alloca ptr, align 8
  %21 = alloca i64, align 8
  %22 = alloca ptr, align 8
  %23 = alloca i64, align 8
  %24 = alloca i32, align 4
  %25 = alloca i32, align 4
  store ptr %0, ptr %13, align 8, !tbaa !3
  store ptr %1, ptr %14, align 8, !tbaa !8
  store i64 %2, ptr %15, align 8, !tbaa !10
  store ptr %3, ptr %16, align 8, !tbaa !8
  store i64 %4, ptr %17, align 8, !tbaa !10
  store ptr %5, ptr %18, align 8, !tbaa !8
  store i64 %6, ptr %19, align 8, !tbaa !10
  store ptr %7, ptr %20, align 8, !tbaa !8
  store i64 %8, ptr %21, align 8, !tbaa !10
  store ptr %9, ptr %22, align 8, !tbaa !8
  store i64 %10, ptr %23, align 8, !tbaa !10
  call void @llvm.lifetime.start.p0(i64 4, ptr %24) #9
  store i32 0, ptr %24, align 4, !tbaa !12
  %26 = load ptr, ptr %14, align 8, !tbaa !8
  %27 = icmp ne ptr %26, null
  br i1 %27, label %28, label %45

28:                                               ; preds = %11
  br label %29

29:                                               ; preds = %28
  %30 = load ptr, ptr %13, align 8, !tbaa !3
  %31 = getelementptr inbounds nuw %struct.mbedtls_rsa_context, ptr %30, i32 0, i32 2
  %32 = load ptr, ptr %14, align 8, !tbaa !8
  %33 = load i64, ptr %15, align 8, !tbaa !10
  %34 = call i32 @mbedtls_mpi_read_binary(ptr noundef %31, ptr noundef %32, i64 noundef %33)
  store i32 %34, ptr %24, align 4, !tbaa !12
  %35 = icmp ne i32 %34, 0
  br i1 %35, label %36, label %37

36:                                               ; preds = %29
  br label %106

37:                                               ; preds = %29
  br label %38

38:                                               ; preds = %37
  br label %39

39:                                               ; preds = %38
  %40 = load ptr, ptr %13, align 8, !tbaa !3
  %41 = getelementptr inbounds nuw %struct.mbedtls_rsa_context, ptr %40, i32 0, i32 2
  %42 = call i64 @mbedtls_mpi_size(ptr noundef %41)
  %43 = load ptr, ptr %13, align 8, !tbaa !3
  %44 = getelementptr inbounds nuw %struct.mbedtls_rsa_context, ptr %43, i32 0, i32 1
  store i64 %42, ptr %44, align 8, !tbaa !19
  br label %45

45:                                               ; preds = %39, %11
  %46 = load ptr, ptr %16, align 8, !tbaa !8
  %47 = icmp ne ptr %46, null
  br i1 %47, label %48, label %60

48:                                               ; preds = %45
  br label %49

49:                                               ; preds = %48
  %50 = load ptr, ptr %13, align 8, !tbaa !3
  %51 = getelementptr inbounds nuw %struct.mbedtls_rsa_context, ptr %50, i32 0, i32 5
  %52 = load ptr, ptr %16, align 8, !tbaa !8
  %53 = load i64, ptr %17, align 8, !tbaa !10
  %54 = call i32 @mbedtls_mpi_read_binary(ptr noundef %51, ptr noundef %52, i64 noundef %53)
  store i32 %54, ptr %24, align 4, !tbaa !12
  %55 = icmp ne i32 %54, 0
  br i1 %55, label %56, label %57

56:                                               ; preds = %49
  br label %106

57:                                               ; preds = %49
  br label %58

58:                                               ; preds = %57
  br label %59

59:                                               ; preds = %58
  br label %60

60:                                               ; preds = %59, %45
  %61 = load ptr, ptr %18, align 8, !tbaa !8
  %62 = icmp ne ptr %61, null
  br i1 %62, label %63, label %75

63:                                               ; preds = %60
  br label %64

64:                                               ; preds = %63
  %65 = load ptr, ptr %13, align 8, !tbaa !3
  %66 = getelementptr inbounds nuw %struct.mbedtls_rsa_context, ptr %65, i32 0, i32 6
  %67 = load ptr, ptr %18, align 8, !tbaa !8
  %68 = load i64, ptr %19, align 8, !tbaa !10
  %69 = call i32 @mbedtls_mpi_read_binary(ptr noundef %66, ptr noundef %67, i64 noundef %68)
  store i32 %69, ptr %24, align 4, !tbaa !12
  %70 = icmp ne i32 %69, 0
  br i1 %70, label %71, label %72

71:                                               ; preds = %64
  br label %106

72:                                               ; preds = %64
  br label %73

73:                                               ; preds = %72
  br label %74

74:                                               ; preds = %73
  br label %75

75:                                               ; preds = %74, %60
  %76 = load ptr, ptr %20, align 8, !tbaa !8
  %77 = icmp ne ptr %76, null
  br i1 %77, label %78, label %90

78:                                               ; preds = %75
  br label %79

79:                                               ; preds = %78
  %80 = load ptr, ptr %13, align 8, !tbaa !3
  %81 = getelementptr inbounds nuw %struct.mbedtls_rsa_context, ptr %80, i32 0, i32 4
  %82 = load ptr, ptr %20, align 8, !tbaa !8
  %83 = load i64, ptr %21, align 8, !tbaa !10
  %84 = call i32 @mbedtls_mpi_read_binary(ptr noundef %81, ptr noundef %82, i64 noundef %83)
  store i32 %84, ptr %24, align 4, !tbaa !12
  %85 = icmp ne i32 %84, 0
  br i1 %85, label %86, label %87

86:                                               ; preds = %79
  br label %106

87:                                               ; preds = %79
  br label %88

88:                                               ; preds = %87
  br label %89

89:                                               ; preds = %88
  br label %90

90:                                               ; preds = %89, %75
  %91 = load ptr, ptr %22, align 8, !tbaa !8
  %92 = icmp ne ptr %91, null
  br i1 %92, label %93, label %105

93:                                               ; preds = %90
  br label %94

94:                                               ; preds = %93
  %95 = load ptr, ptr %13, align 8, !tbaa !3
  %96 = getelementptr inbounds nuw %struct.mbedtls_rsa_context, ptr %95, i32 0, i32 3
  %97 = load ptr, ptr %22, align 8, !tbaa !8
  %98 = load i64, ptr %23, align 8, !tbaa !10
  %99 = call i32 @mbedtls_mpi_read_binary(ptr noundef %96, ptr noundef %97, i64 noundef %98)
  store i32 %99, ptr %24, align 4, !tbaa !12
  %100 = icmp ne i32 %99, 0
  br i1 %100, label %101, label %102

101:                                              ; preds = %94
  br label %106

102:                                              ; preds = %94
  br label %103

103:                                              ; preds = %102
  br label %104

104:                                              ; preds = %103
  br label %105

105:                                              ; preds = %104, %90
  br label %106

106:                                              ; preds = %105, %101, %86, %71, %56, %36
  %107 = load i32, ptr %24, align 4, !tbaa !12
  %108 = icmp ne i32 %107, 0
  br i1 %108, label %109, label %112

109:                                              ; preds = %106
  %110 = load i32, ptr %24, align 4, !tbaa !12
  %111 = call i32 @mbedtls_error_add(i32 noundef -16512, i32 noundef %110, ptr noundef @.str, i32 noundef 627)
  store i32 %111, ptr %12, align 4
  store i32 1, ptr %25, align 4
  br label %113

112:                                              ; preds = %106
  store i32 0, ptr %12, align 4
  store i32 1, ptr %25, align 4
  br label %113

113:                                              ; preds = %112, %109
  call void @llvm.lifetime.end.p0(i64 4, ptr %24) #9
  %114 = load i32, ptr %12, align 4
  ret i32 %114
}