; Function Attrs: nounwind uwtable
define hidden range(i32 -2147483648, 2147467136) i32 @mbedtls_rsa_import_raw(ptr noundef %0, ptr noundef %1, i64 noundef %2, ptr noundef %3, i64 noundef %4, ptr noundef %5, i64 noundef %6, ptr noundef %7, i64 noundef %8, ptr noundef %9, i64 noundef %10) local_unnamed_addr #0 {
  %.not = icmp eq ptr %1, null
  br i1 %.not, label %18, label %12

12:                                               ; preds = %11
  %13 = getelementptr inbounds nuw i8, ptr %0, i64 16
  %14 = tail call i32 @mbedtls_mpi_read_binary(ptr noundef nonnull %13, ptr noundef nonnull %1, i64 noundef %2) #14
  %.not36 = icmp eq i32 %14, 0
  br i1 %.not36, label %15, label %.thread

15:                                               ; preds = %12
  %16 = tail call i64 @mbedtls_mpi_size(ptr noundef nonnull %13) #14
  %17 = getelementptr inbounds nuw i8, ptr %0, i64 8
  store i64 %16, ptr %17, align 8, !tbaa !12
  br label %18

18:                                               ; preds = %15, %11
  %.not37 = icmp eq ptr %3, null
  br i1 %.not37, label %22, label %19

19:                                               ; preds = %18
  %20 = getelementptr inbounds nuw i8, ptr %0, i64 64
  %21 = tail call i32 @mbedtls_mpi_read_binary(ptr noundef nonnull %20, ptr noundef nonnull %3, i64 noundef %4) #14
  %.not38 = icmp eq i32 %21, 0
  br i1 %.not38, label %22, label %.thread

22:                                               ; preds = %19, %18
  %.not39 = icmp eq ptr %5, null
  br i1 %.not39, label %26, label %23

23:                                               ; preds = %22
  %24 = getelementptr inbounds nuw i8, ptr %0, i64 80
  %25 = tail call i32 @mbedtls_mpi_read_binary(ptr noundef nonnull %24, ptr noundef nonnull %5, i64 noundef %6) #14
  %.not40 = icmp eq i32 %25, 0
  br i1 %.not40, label %26, label %.thread

26:                                               ; preds = %23, %22
  %.not41 = icmp eq ptr %7, null
  br i1 %.not41, label %32, label %27

27:                                               ; preds = %26
  %28 = getelementptr inbounds nuw i8, ptr %0, i64 48
  %29 = tail call i32 @mbedtls_mpi_read_binary(ptr noundef nonnull %28, ptr noundef nonnull %7, i64 noundef %8) #14
  %30 = icmp eq i32 %29, 0
  %31 = icmp ne ptr %9, null
  %or.cond = and i1 %31, %30
  br i1 %or.cond, label %33, label %36

32:                                               ; preds = %26
  %.old1.not = icmp eq ptr %9, null
  br i1 %.old1.not, label %.thread46, label %33

33:                                               ; preds = %27, %32
  %34 = getelementptr inbounds nuw i8, ptr %0, i64 32
  %35 = tail call i32 @mbedtls_mpi_read_binary(ptr noundef nonnull %34, ptr noundef nonnull %9, i64 noundef %10) #14
  br label %36

36:                                               ; preds = %33, %27
  %.1 = phi i32 [ %35, %33 ], [ %29, %27 ]
  %.not42 = icmp eq i32 %.1, 0
  br i1 %.not42, label %.thread46, label %.thread

.thread:                                          ; preds = %23, %19, %12, %36
  %.145 = phi i32 [ %.1, %36 ], [ %25, %23 ], [ %21, %19 ], [ %14, %12 ]
  %37 = add nsw i32 %.145, -16512
  br label %.thread46

.thread46:                                        ; preds = %32, %36, %.thread
  %.025 = phi i32 [ %37, %.thread ], [ 0, %36 ], [ 0, %32 ]
  ret i32 %.025
}